target datalayout = "e-m:e-p270:32:32-p271:32:32-p272:64:64-i64:64-i128:128-f80:128-n8:16:32:64-S128"
target triple = "x86_64-pc-linux-gnu"

%"class.absl::Span" = type { ptr, i64 }
%"class.absl::str_format_internal::UntypedFormatSpecImpl" = type { ptr, i64 }
%"class.absl::str_format_internal::FormatRawSinkImpl" = type { ptr, ptr }
%"class.absl::str_format_internal::BufferRawSink" = type { ptr, i64, i64 }

; Function Attrs: inlinehint mustprogress nounwind uwtable
define linkonce_odr dso_local noundef nonnull align 8 dereferenceable(8) ptr @_ZSt3minImERKT_S2_S2_(ptr noundef nonnull align 8 dereferenceable(8) %0, ptr noundef nonnull align 8 dereferenceable(8) %1) #7 comdat {
  %3 = alloca ptr, align 8
  %4 = alloca ptr, align 8
  %5 = alloca ptr, align 8
  store ptr %0, ptr %4, align 8, !tbaa !101
  store ptr %1, ptr %5, align 8, !tbaa !101
  %6 = load ptr, ptr %5, align 8, !tbaa !101
  %7 = load i64, ptr %6, align 8, !tbaa !14
  %8 = load ptr, ptr %4, align 8, !tbaa !101
  %9 = load i64, ptr %8, align 8, !tbaa !14
  %10 = icmp ult i64 %7, %9
  br i1 %10, label %11, label %13

11:                                               ; preds = %2
  %12 = load ptr, ptr %5, align 8, !tbaa !101
  store ptr %12, ptr %3, align 8
  br label %15

13:                                               ; preds = %2
  %14 = load ptr, ptr %4, align 8, !tbaa !101
  store ptr %14, ptr %3, align 8
  br label %15

15:                                               ; preds = %13, %11
  %16 = load ptr, ptr %3, align 8
  ret ptr %16
}

; Function Attrs: mustprogress nounwind uwtable
define linkonce_odr dso_local noundef i64 @_ZNK4absl19str_format_internal13BufferRawSink13total_writtenEv(ptr noundef nonnull align 8 dereferenceable(24) %0) #3 comdat align 2 {
  %2 = alloca ptr, align 8
  store ptr %0, ptr %2, align 8, !tbaa !95
  %3 = load ptr, ptr %2, align 8
  %4 = getelementptr inbounds nuw %"class.absl::str_format_internal::BufferRawSink", ptr %3, i32 0, i32 2
  %5 = load i64, ptr %4, align 8, !tbaa !100
  ret i64 %5
}

; Function Attrs: mustprogress nounwind uwtable
define linkonce_odr dso_local void @_ZN4absl19str_format_internal17FormatRawSinkImplC2INS0_13BufferRawSinkETnPDTclsr19str_format_internalE11InvokeFlushclsr3stdE7declvalIPT_EEcvSt17basic_string_viewIcSt11char_traitsIcEE_EEELPv0EEES5_(ptr noundef nonnull align 8 dereferenceable(16) %0, ptr noundef %1) unnamed_addr #3 comdat align 2 {
  %3 = alloca ptr, align 8
  %4 = alloca ptr, align 8
  store ptr %0, ptr %3, align 8, !tbaa !37
  store ptr %1, ptr %4, align 8, !tbaa !95
  %5 = load ptr, ptr %3, align 8
  %6 = getelementptr inbounds nuw %"class.absl::str_format_internal::FormatRawSinkImpl", ptr %5, i32 0, i32 0
  %7 = load ptr, ptr %4, align 8, !tbaa !95
  store ptr %7, ptr %6, align 8, !tbaa !39
  %8 = getelementptr inbounds nuw %"class.absl::str_format_internal::FormatRawSinkImpl", ptr %5, i32 0, i32 1
  store ptr @_ZN4absl19str_format_internal17FormatRawSinkImpl5FlushINS0_13BufferRawSinkEEEvPvSt17basic_string_viewIcSt11char_traitsIcEE, ptr %8, align 8, !tbaa !41
  ret void
}

; Function Attrs: mustprogress nounwind uwtable
define linkonce_odr dso_local void @_ZN4absl19str_format_internal13BufferRawSinkC2EPcm(ptr noundef nonnull align 8 dereferenceable(24) %0, ptr noundef %1, i64 noundef %2) unnamed_addr #3 comdat align 2 {
  %4 = alloca ptr, align 8
  %5 = alloca ptr, align 8
  %6 = alloca i64, align 8
  store ptr %0, ptr %4, align 8, !tbaa !95
  store ptr %1, ptr %5, align 8, !tbaa !56
  store i64 %2, ptr %6, align 8, !tbaa !14
  %7 = load ptr, ptr %4, align 8
  %8 = getelementptr inbounds nuw %"class.absl::str_format_internal::BufferRawSink", ptr %7, i32 0, i32 0
  %9 = load ptr, ptr %5, align 8, !tbaa !56
  store ptr %9, ptr %8, align 8, !tbaa !97
  %10 = getelementptr inbounds nuw %"class.absl::str_format_internal::BufferRawSink", ptr %7, i32 0, i32 1
  %11 = load i64, ptr %6, align 8, !tbaa !14
  store i64 %11, ptr %10, align 8, !tbaa !99
  %12 = getelementptr inbounds nuw %"class.absl::str_format_internal::BufferRawSink", ptr %7, i32 0, i32 2
  store i64 0, ptr %12, align 8, !tbaa !100
  ret void
}

; Function Attrs: mustprogress uwtable
define dso_local noundef i32 @_ZN4absl19str_format_internal8SnprintFEPcmNS0_21UntypedFormatSpecImplENS_4SpanIKNS0_13FormatArgImplEEE(ptr noundef %0, i64 noundef %1, ptr %2, i64 %3, ptr %4, i64 %5) #0 {
  %7 = alloca i32, align 4
  %8 = alloca %"class.absl::str_format_internal::UntypedFormatSpecImpl", align 8
  %9 = alloca %"class.absl::Span", align 8
  %10 = alloca ptr, align 8
  %11 = alloca i64, align 8
  %12 = alloca %"class.absl::str_format_internal::BufferRawSink", align 8
  %13 = alloca %"class.absl::str_format_internal::FormatRawSinkImpl", align 8
  %14 = alloca %"class.absl::str_format_internal::UntypedFormatSpecImpl", align 8
  %15 = alloca %"class.absl::Span", align 8
  %16 = alloca i32, align 4
  %17 = alloca i64, align 8
  %18 = alloca i64, align 8
  %19 = getelementptr inbounds nuw { ptr, i64 }, ptr %8, i32 0, i32 0
  store ptr %2, ptr %19, align 8
  %20 = getelementptr inbounds nuw { ptr, i64 }, ptr %8, i32 0, i32 1
  store i64 %3, ptr %20, align 8
  %21 = getelementptr inbounds nuw { ptr, i64 }, ptr %9, i32 0, i32 0
  store ptr %4, ptr %21, align 8
  %22 = getelementptr inbounds nuw { ptr, i64 }, ptr %9, i32 0, i32 1
  store i64 %5, ptr %22, align 8
  store ptr %0, ptr %10, align 8, !tbaa !56
  store i64 %1, ptr %11, align 8, !tbaa !14
  call void @llvm.lifetime.start.p0(i64 24, ptr %12) #17
  %23 = load ptr, ptr %10, align 8, !tbaa !56
  %24 = load i64, ptr %11, align 8, !tbaa !14
  %25 = icmp ne i64 %24, 0
  br i1 %25, label %26, label %29

26:                                               ; preds = %6
  %27 = load i64, ptr %11, align 8, !tbaa !14
  %28 = sub i64 %27, 1
  br label %30

29:                                               ; preds = %6
  br label %30

30:                                               ; preds = %29, %26
  %31 = phi i64 [ %28, %26 ], [ 0, %29 ]
  call void @_ZN4absl19str_format_internal13BufferRawSinkC2EPcm(ptr noundef nonnull align 8 dereferenceable(24) %12, ptr noundef %23, i64 noundef %31)
  call void @_ZN4absl19str_format_internal17FormatRawSinkImplC2INS0_13BufferRawSinkETnPDTclsr19str_format_internalE11InvokeFlushclsr3stdE7declvalIPT_EEcvSt17basic_string_viewIcSt11char_traitsIcEE_EEELPv0EEES5_(ptr noundef nonnull align 8 dereferenceable(16) %13, ptr noundef %12)
  call void @llvm.memcpy.p0.p0.i64(ptr align 8 %14, ptr align 8 %8, i64 16, i1 false), !tbaa.struct !33
  call void @llvm.memcpy.p0.p0.i64(ptr align 8 %15, ptr align 8 %9, i64 16, i1 false), !tbaa.struct !11
  %32 = getelementptr inbounds nuw { ptr, ptr }, ptr %13, i32 0, i32 0
  %33 = load ptr, ptr %32, align 8
  %34 = getelementptr inbounds nuw { ptr, ptr }, ptr %13, i32 0, i32 1
  %35 = load ptr, ptr %34, align 8
  %36 = getelementptr inbounds nuw { ptr, i64 }, ptr %14, i32 0, i32 0
  %37 = load ptr, ptr %36, align 8
  %38 = getelementptr inbounds nuw { ptr, i64 }, ptr %14, i32 0, i32 1
  %39 = load i64, ptr %38, align 8
  %40 = getelementptr inbounds nuw { ptr, i64 }, ptr %15, i32 0, i32 0
  %41 = load ptr, ptr %40, align 8
  %42 = getelementptr inbounds nuw { ptr, i64 }, ptr %15, i32 0, i32 1
  %43 = load i64, ptr %42, align 8
  %44 = call noundef zeroext i1 @_ZN4absl19str_format_internal13FormatUntypedENS0_17FormatRawSinkImplENS0_21UntypedFormatSpecImplENS_4SpanIKNS0_13FormatArgImplEEE(ptr %33, ptr %35, ptr %37, i64 %39, ptr %41, i64 %43)
  br i1 %44, label %47, label %45

45:                                               ; preds = %30
  %46 = call ptr @__errno_location() #20
  store i32 22, ptr %46, align 4, !tbaa !25
  store i32 -1, ptr %7, align 4
  store i32 1, ptr %16, align 4
  br label %61

47:                                               ; preds = %30
  call void @llvm.lifetime.start.p0(i64 8, ptr %17) #17
  %48 = call noundef i64 @_ZNK4absl19str_format_internal13BufferRawSink13total_writtenEv(ptr noundef nonnull align 8 dereferenceable(24) %12)
  store i64 %48, ptr %17, align 8, !tbaa !14
  %49 = load i64, ptr %11, align 8, !tbaa !14
  %50 = icmp ne i64 %49, 0
  br i1 %50, label %51, label %58

51:                                               ; preds = %47
  %52 = load ptr, ptr %10, align 8, !tbaa !56
  call void @llvm.lifetime.start.p0(i64 8, ptr %18) #17
  %53 = load i64, ptr %11, align 8, !tbaa !14
  %54 = sub i64 %53, 1
  store i64 %54, ptr %18, align 8, !tbaa !14
  %55 = call noundef nonnull align 8 dereferenceable(8) ptr @_ZSt3minImERKT_S2_S2_(ptr noundef nonnull align 8 dereferenceable(8) %17, ptr noundef nonnull align 8 dereferenceable(8) %18)
  %56 = load i64, ptr %55, align 8, !tbaa !14
  %57 = getelementptr inbounds nuw i8, ptr %52, i64 %56
  store i8 0, ptr %57, align 1, !tbaa !57
  call void @llvm.lifetime.end.p0(i64 8, ptr %18) #17
  br label %58

58:                                               ; preds = %51, %47
  %59 = load i64, ptr %17, align 8, !tbaa !14
  %60 = trunc i64 %59 to i32
  store i32 %60, ptr %7, align 4
  store i32 1, ptr %16, align 4
  call void @llvm.lifetime.end.p0(i64 8, ptr %17) #17
  br label %61

61:                                               ; preds = %58, %45
  call void @llvm.lifetime.end.p0(i64 24, ptr %12) #17
  %62 = load i32, ptr %7, align 4
  ret i32 %62
}