; Function Attrs: mustprogress uwtable
define dso_local noundef i32 @_ZN4absl19str_format_internal8SnprintFEPcmNS0_21UntypedFormatSpecImplENS_4SpanIKNS0_13FormatArgImplEEE(ptr noundef %0, i64 noundef %1, ptr %2, i64 %3, ptr %4, i64 %5) local_unnamed_addr #0 {
  %7 = alloca %"class.absl::str_format_internal::BufferRawSink", align 8
  call void @llvm.lifetime.start.p0(i64 24, ptr nonnull %7) #15
  %8 = add i64 %1, -1
  %9 = tail call i64 @llvm.usub.sat.i64(i64 %1, i64 1)
  store ptr %0, ptr %7, align 8, !tbaa !99
  %10 = getelementptr inbounds nuw i8, ptr %7, i64 8
  store i64 %9, ptr %10, align 8, !tbaa !101
  %11 = getelementptr inbounds nuw i8, ptr %7, i64 16
  store i64 0, ptr %11, align 8, !tbaa !102
  %12 = call noundef zeroext i1 @_ZN4absl19str_format_internal13FormatUntypedENS0_17FormatRawSinkImplENS0_21UntypedFormatSpecImplENS_4SpanIKNS0_13FormatArgImplEEE(ptr nonnull %7, ptr nonnull @_ZN4absl19str_format_internal17FormatRawSinkImpl5FlushINS0_13BufferRawSinkEEEvPvSt17basic_string_viewIcSt11char_traitsIcEE, ptr %2, i64 %3, ptr %4, i64 %5)
  br i1 %12, label %15, label %13

13:                                               ; preds = %6
  %14 = tail call ptr @__errno_location() #20
  store i32 22, ptr %14, align 4, !tbaa !15
  br label %21

15:                                               ; preds = %6
  %.not = icmp eq i64 %1, 0
  %16 = load i64, ptr %11, align 8, !tbaa !102
  br i1 %.not, label %19, label %17

17:                                               ; preds = %15
  %.sroa.speculated = call i64 @llvm.umin.i64(i64 %8, i64 %16)
  %18 = getelementptr inbounds nuw i8, ptr %0, i64 %.sroa.speculated
  store i8 0, ptr %18, align 1, !tbaa !16
  br label %19

19:                                               ; preds = %17, %15
  %20 = trunc i64 %16 to i32
  br label %21

21:                                               ; preds = %19, %13
  %.0 = phi i32 [ %20, %19 ], [ -1, %13 ]
  call void @llvm.lifetime.end.p0(i64 24, ptr nonnull %7) #15
  ret i32 %.0
}